target datalayout = "e-m:e-p270:32:32-p271:32:32-p272:64:64-i64:64-i128:128-f80:128-n8:16:32:64-S128"
target triple = "x86_64-pc-linux-gnu"

@helper_features = internal global ptr null, align 8
@.str = private unnamed_addr constant [41 x i8] c"job requests mutually exclusive features\00", align 1
@.str.1 = private unnamed_addr constant [4 x i8] c"[]*\00", align 1
@.str.2 = private unnamed_addr constant [80 x i8] c"operator(s) \22[]*\22 not allowed in constraint \22%s\22 when using changeable features\00", align 1

; Function Attrs: nounwind uwtable
define dso_local i32 @node_features_p_job_valid(ptr noundef %0, ptr noundef %1) #0 {
  %3 = alloca i32, align 4
  %4 = alloca ptr, align 8
  %5 = alloca ptr, align 8
  %6 = alloca ptr, align 8
  %7 = alloca i32, align 4
  %8 = alloca i32, align 4
  store ptr %0, ptr %4, align 8
  store ptr %1, ptr %5, align 8
  call void @llvm.lifetime.start.p0(i64 8, ptr %6) #8
  call void @llvm.lifetime.start.p0(i64 4, ptr %7) #8
  %9 = load ptr, ptr %4, align 8
  %10 = icmp ne ptr %9, null
  br i1 %10, label %12, label %11

11:                                               ; preds = %2
  store i32 0, ptr %3, align 4
  store i32 1, ptr %8, align 4
  br label %50

12:                                               ; preds = %2
  %13 = load ptr, ptr @helper_features, align 8
  %14 = load ptr, ptr %4, align 8
  %15 = call i32 @list_for_each(ptr noundef %13, ptr noundef @_foreach_feature, ptr noundef %14)
  %16 = icmp sge i32 %15, 0
  br i1 %16, label %17, label %18

17:                                               ; preds = %12
  store i32 0, ptr %3, align 4
  store i32 1, ptr %8, align 4
  br label %50

18:                                               ; preds = %12
  %19 = load ptr, ptr %4, align 8
  %20 = load ptr, ptr %5, align 8
  %21 = call ptr @job_features_list2feature_sets(ptr noundef %19, ptr noundef %20, i1 noundef zeroext true)
  store ptr %21, ptr %6, align 8
  %22 = load ptr, ptr %6, align 8
  %23 = call i32 @list_for_each(ptr noundef %22, ptr noundef @_has_exclusive_features, ptr noundef null)
  store i32 %23, ptr %7, align 4
  br label %24

24:                                               ; preds = %18
  %25 = load ptr, ptr %6, align 8
  %26 = icmp ne ptr %25, null
  br i1 %26, label %27, label %29

27:                                               ; preds = %24
  %28 = load ptr, ptr %6, align 8
  call void @list_destroy(ptr noundef %28)
  br label %29

29:                                               ; preds = %27, %24
  store ptr null, ptr %6, align 8
  br label %30

30:                                               ; preds = %29
  br label %31

31:                                               ; preds = %30
  %32 = load i32, ptr %7, align 4
  %33 = icmp slt i32 %32, 0
  br i1 %33, label %34, label %36

34:                                               ; preds = %31
  %35 = call i32 (ptr, ...) @error(ptr noundef @.str)
  store i32 2029, ptr %3, align 4
  store i32 1, ptr %8, align 4
  br label %50

36:                                               ; preds = %31
  %37 = load ptr, ptr %4, align 8
  %38 = call ptr @strpbrk(ptr noundef %37, ptr noundef @.str.1) #9
  %39 = icmp ne ptr %38, null
  br i1 %39, label %41, label %40

40:                                               ; preds = %36
  store i32 0, ptr %3, align 4
  store i32 1, ptr %8, align 4
  br label %50

41:                                               ; preds = %36
  %42 = load ptr, ptr @helper_features, align 8
  %43 = load ptr, ptr %4, align 8
  %44 = call i32 @list_for_each(ptr noundef %42, ptr noundef @_foreach_feature, ptr noundef %43)
  %45 = icmp slt i32 %44, 0
  br i1 %45, label %46, label %49

46:                                               ; preds = %41
  %47 = load ptr, ptr %4, align 8
  %48 = call i32 (ptr, ...) @error(ptr noundef @.str.2, ptr noundef %47)
  store i32 2029, ptr %3, align 4
  store i32 1, ptr %8, align 4
  br label %50

49:                                               ; preds = %41
  store i32 0, ptr %3, align 4
  store i32 1, ptr %8, align 4
  br label %50

50:                                               ; preds = %49, %46, %40, %34, %17, %11
  call void @llvm.lifetime.end.p0(i64 4, ptr %7) #8
  call void @llvm.lifetime.end.p0(i64 8, ptr %6) #8
  %51 = load i32, ptr %3, align 4
  ret i32 %51
}