; Function Attrs: nounwind uwtable
define dso_local range(i32 0, 2030) i32 @node_features_p_job_valid(ptr noundef %0, ptr noundef %1) local_unnamed_addr #0 {
  %.not = icmp eq ptr %0, null
  br i1 %.not, label %23, label %3

3:                                                ; preds = %2
  %4 = load ptr, ptr @helper_features, align 8
  %5 = tail call i32 @list_for_each(ptr noundef %4, ptr noundef nonnull @_foreach_feature, ptr noundef nonnull %0) #10
  %6 = icmp sgt i32 %5, -1
  br i1 %6, label %23, label %7

7:                                                ; preds = %3
  %8 = tail call ptr @job_features_list2feature_sets(ptr noundef nonnull %0, ptr noundef %1, i1 noundef zeroext true) #10
  %9 = tail call i32 @list_for_each(ptr noundef %8, ptr noundef nonnull @_has_exclusive_features, ptr noundef null) #10
  %.not13 = icmp eq ptr %8, null
  br i1 %.not13, label %11, label %10

10:                                               ; preds = %7
  tail call void @list_destroy(ptr noundef nonnull %8) #10
  br label %11

11:                                               ; preds = %10, %7
  %12 = icmp slt i32 %9, 0
  br i1 %12, label %13, label %15

13:                                               ; preds = %11
  %14 = tail call i32 (ptr, ...) @error(ptr noundef nonnull @.str) #10
  br label %23

15:                                               ; preds = %11
  %16 = tail call ptr @strpbrk(ptr noundef nonnull %0, ptr noundef nonnull @.str.1) #12
  %.not14 = icmp eq ptr %16, null
  br i1 %.not14, label %23, label %17

17:                                               ; preds = %15
  %18 = load ptr, ptr @helper_features, align 8
  %19 = tail call i32 @list_for_each(ptr noundef %18, ptr noundef nonnull @_foreach_feature, ptr noundef nonnull %0) #10
  %20 = icmp slt i32 %19, 0
  br i1 %20, label %21, label %23

21:                                               ; preds = %17
  %22 = tail call i32 (ptr, ...) @error(ptr noundef nonnull @.str.2, ptr noundef nonnull %0) #10
  br label %23

23:                                               ; preds = %17, %15, %3, %2, %21, %13
  %.0 = phi i32 [ 2029, %13 ], [ 2029, %21 ], [ 0, %2 ], [ 0, %3 ], [ 0, %15 ], [ 0, %17 ]
  ret i32 %.0
}